; ModuleID = '31/1440.c'
source_filename = "31/1440.c"
target datalayout = "e-m:e-p270:32:32-p271:32:32-p272:64:64-i64:64-f80:128-n8:16:32:64-S128"
target triple = "x86_64-pc-linux-gnu"

%struct.student = type { [20 x i8], [20 x i8], i8, i32, float, [20 x i8], %struct.student* }

@n = common dso_local global i32 0, align 4
@.str = private unnamed_addr constant [3 x i8] c"%s\00", align 1
@.str.1 = private unnamed_addr constant [14 x i8] c"%s %c %d%f %s\00", align 1
@.str.2 = private unnamed_addr constant [19 x i8] c"%s %s %c %d %g %s\0A\00", align 1

; Function Attrs: noinline nounwind uwtable
define dso_local %struct.student* @create() #0 {
  %1 = alloca %struct.student*, align 8
  %2 = alloca %struct.student*, align 8
  %3 = alloca %struct.student*, align 8
  %4 = alloca %struct.student*, align 8
  store %struct.student* null, %struct.student** %2, align 8
  store i32 0, i32* @n, align 4
  %5 = call noalias i8* @malloc(i64 100) #3
  %6 = bitcast i8* %5 to %struct.student*
  store %struct.student* %6, %struct.student** %4, align 8
  store %struct.student* %6, %struct.student** %3, align 8
  %7 = load %struct.student*, %struct.student** %3, align 8
  %8 = getelementptr inbounds %struct.student, %struct.student* %7, i32 0, i32 0
  %9 = getelementptr inbounds [20 x i8], [20 x i8]* %8, i64 0, i64 0
  %10 = call i32 (i8*, ...) @__isoc99_scanf(i8* getelementptr inbounds ([3 x i8], [3 x i8]* @.str, i64 0, i64 0), i8* %9)
  %11 = load %struct.student*, %struct.student** %3, align 8
  %12 = getelementptr inbounds %struct.student, %struct.student* %11, i32 0, i32 0
  %13 = getelementptr inbounds [20 x i8], [20 x i8]* %12, i64 0, i64 0
  %14 = load i8, i8* %13, align 8
  %15 = sext i8 %14 to i32
  %16 = icmp eq i32 %15, 101
  br i1 %16, label %17, label %19

17:                                               ; preds = %0
  %18 = load %struct.student*, %struct.student** %2, align 8
  store %struct.student* %18, %struct.student** %1, align 8
  br label %80

19:                                               ; preds = %0
  %20 = load %struct.student*, %struct.student** %3, align 8
  %21 = getelementptr inbounds %struct.student, %struct.student* %20, i32 0, i32 1
  %22 = getelementptr inbounds [20 x i8], [20 x i8]* %21, i64 0, i64 0
  %23 = load %struct.student*, %struct.student** %3, align 8
  %24 = getelementptr inbounds %struct.student, %struct.student* %23, i32 0, i32 2
  %25 = load %struct.student*, %struct.student** %3, align 8
  %26 = getelementptr inbounds %struct.student, %struct.student* %25, i32 0, i32 3
  %27 = load %struct.student*, %struct.student** %3, align 8
  %28 = getelementptr inbounds %struct.student, %struct.student* %27, i32 0, i32 4
  %29 = load %struct.student*, %struct.student** %3, align 8
  %30 = getelementptr inbounds %struct.student, %struct.student* %29, i32 0, i32 5
  %31 = getelementptr inbounds [20 x i8], [20 x i8]* %30, i64 0, i64 0
  %32 = call i32 (i8*, ...) @__isoc99_scanf(i8* getelementptr inbounds ([14 x i8], [14 x i8]* @.str.1, i64 0, i64 0), i8* %22, i8* %24, i32* %26, float* %28, i8* %31)
  br label %33

33:                                               ; preds = %63, %19
  %34 = load i32, i32* @n, align 4
  %35 = icmp ne i32 %34, -1
  br i1 %35, label %36, label %77

36:                                               ; preds = %33
  %37 = load i32, i32* @n, align 4
  %38 = add nsw i32 %37, 1
  store i32 %38, i32* @n, align 4
  %39 = load i32, i32* @n, align 4
  %40 = icmp eq i32 %39, 1
  br i1 %40, label %41, label %44

41:                                               ; preds = %36
  %42 = load %struct.student*, %struct.student** %3, align 8
  %43 = getelementptr inbounds %struct.student, %struct.student* %42, i32 0, i32 6
  store %struct.student* null, %struct.student** %43, align 8
  br label %48

44:                                               ; preds = %36
  %45 = load %struct.student*, %struct.student** %4, align 8
  %46 = load %struct.student*, %struct.student** %3, align 8
  %47 = getelementptr inbounds %struct.student, %struct.student* %46, i32 0, i32 6
  store %struct.student* %45, %struct.student** %47, align 8
  br label %48

48:                                               ; preds = %44, %41
  %49 = load %struct.student*, %struct.student** %3, align 8
  store %struct.student* %49, %struct.student** %4, align 8
  %50 = call noalias i8* @malloc(i64 100) #3
  %51 = bitcast i8* %50 to %struct.student*
  store %struct.student* %51, %struct.student** %3, align 8
  %52 = load %struct.student*, %struct.student** %3, align 8
  %53 = getelementptr inbounds %struct.student, %struct.student* %52, i32 0, i32 0
  %54 = getelementptr inbounds [20 x i8], [20 x i8]* %53, i64 0, i64 0
  %55 = call i32 (i8*, ...) @__isoc99_scanf(i8* getelementptr inbounds ([3 x i8], [3 x i8]* @.str, i64 0, i64 0), i8* %54)
  %56 = load %struct.student*, %struct.student** %3, align 8
  %57 = getelementptr inbounds %struct.student, %struct.student* %56, i32 0, i32 0
  %58 = getelementptr inbounds [20 x i8], [20 x i8]* %57, i64 0, i64 0
  %59 = load i8, i8* %58, align 8
  %60 = sext i8 %59 to i32
  %61 = icmp eq i32 %60, 101
  br i1 %61, label %62, label %63

62:                                               ; preds = %48
  br label %77

63:                                               ; preds = %48
  %64 = load %struct.student*, %struct.student** %3, align 8
  %65 = getelementptr inbounds %struct.student, %struct.student* %64, i32 0, i32 1
  %66 = getelementptr inbounds [20 x i8], [20 x i8]* %65, i64 0, i64 0
  %67 = load %struct.student*, %struct.student** %3, align 8
  %68 = getelementptr inbounds %struct.student, %struct.student* %67, i32 0, i32 2
  %69 = load %struct.student*, %struct.student** %3, align 8
  %70 = getelementptr inbounds %struct.student, %struct.student* %69, i32 0, i32 3
  %71 = load %struct.student*, %struct.student** %3, align 8
  %72 = getelementptr inbounds %struct.student, %struct.student* %71, i32 0, i32 4
  %73 = load %struct.student*, %struct.student** %3, align 8
  %74 = getelementptr inbounds %struct.student, %struct.student* %73, i32 0, i32 5
  %75 = getelementptr inbounds [20 x i8], [20 x i8]* %74, i64 0, i64 0
  %76 = call i32 (i8*, ...) @__isoc99_scanf(i8* getelementptr inbounds ([14 x i8], [14 x i8]* @.str.1, i64 0, i64 0), i8* %66, i8* %68, i32* %70, float* %72, i8* %75)
  br label %33

77:                                               ; preds = %62, %33
  %78 = load %struct.student*, %struct.student** %4, align 8
  store %struct.student* %78, %struct.student** %2, align 8
  %79 = load %struct.student*, %struct.student** %2, align 8
  store %struct.student* %79, %struct.student** %1, align 8
  br label %80

80:                                               ; preds = %77, %17
  %81 = load %struct.student*, %struct.student** %1, align 8
  ret %struct.student* %81
}

; Function Attrs: nounwind
declare dso_local noalias i8* @malloc(i64) #1

declare dso_local i32 @__isoc99_scanf(i8*, ...) #2

; Function Attrs: noinline nounwind uwtable
define dso_local void @print(%struct.student* %0) #0 {
  %2 = alloca %struct.student*, align 8
  store %struct.student* %0, %struct.student** %2, align 8
  br label %3

3:                                                ; preds = %6, %1
  %4 = load %struct.student*, %struct.student** %2, align 8
  %5 = icmp ne %struct.student* %4, null
  br i1 %5, label %6, label %31

6:                                                ; preds = %3
  %7 = load %struct.student*, %struct.student** %2, align 8
  %8 = getelementptr inbounds %struct.student, %struct.student* %7, i32 0, i32 0
  %9 = getelementptr inbounds [20 x i8], [20 x i8]* %8, i64 0, i64 0
  %10 = load %struct.student*, %struct.student** %2, align 8
  %11 = getelementptr inbounds %struct.student, %struct.student* %10, i32 0, i32 1
  %12 = getelementptr inbounds [20 x i8], [20 x i8]* %11, i64 0, i64 0
  %13 = load %struct.student*, %struct.student** %2, align 8
  %14 = getelementptr inbounds %struct.student, %struct.student* %13, i32 0, i32 2
  %15 = load i8, i8* %14, align 8
  %16 = sext i8 %15 to i32
  %17 = load %struct.student*, %struct.student** %2, align 8
  %18 = getelementptr inbounds %struct.student, %struct.student* %17, i32 0, i32 3
  %19 = load i32, i32* %18, align 4
  %20 = load %struct.student*, %struct.student** %2, align 8
  %21 = getelementptr inbounds %struct.student, %struct.student* %20, i32 0, i32 4
  %22 = load float, float* %21, align 8
  %23 = fpext float %22 to double
  %24 = load %struct.student*, %struct.student** %2, align 8
  %25 = getelementptr inbounds %struct.student, %struct.student* %24, i32 0, i32 5
  %26 = getelementptr inbounds [20 x i8], [20 x i8]* %25, i64 0, i64 0
  %27 = call i32 (i8*, ...) @printf(i8* getelementptr inbounds ([19 x i8], [19 x i8]* @.str.2, i64 0, i64 0), i8* %9, i8* %12, i32 %16, i32 %19, double %23, i8* %26)
  %28 = load %struct.student*, %struct.student** %2, align 8
  %29 = getelementptr inbounds %struct.student, %struct.student* %28, i32 0, i32 6
  %30 = load %struct.student*, %struct.student** %29, align 8
  store %struct.student* %30, %struct.student** %2, align 8
  br label %3

31:                                               ; preds = %3
  ret void
}

declare dso_local i32 @printf(i8*, ...) #2

; Function Attrs: noinline nounwind uwtable
define dso_local void @main() #0 {
  %1 = alloca %struct.student*, align 8
  %2 = call %struct.student* @create()
  store %struct.student* %2, %struct.student** %1, align 8
  %3 = load %struct.student*, %struct.student** %1, align 8
  call void @print(%struct.student* %3)
  ret void
}


!llvm.module.flags = !{!0}
!llvm.ident = !{!1}

!0 = !{i32 1, !"wchar_size", i32 4}
!1 = !{!"clang version 10.0.0-4ubuntu1 "}
