; ModuleID = 'source-C-CXX/30/1440.c'
source_filename = "source-C-CXX/30/1440.c"
target datalayout = "e-m:e-p270:32:32-p271:32:32-p272:64:64-i64:64-f80:128-n8:16:32:64-S128"
target triple = "x86_64-pc-linux-gnu"

%struct.student = type { [20 x i8], [20 x i8], i8, i32, float, [20 x i8], %struct.student* }

@n = dso_local local_unnamed_addr global i32 0, align 4
@.str = private unnamed_addr constant [3 x i8] c"%s\00", align 1
@.str.1 = private unnamed_addr constant [14 x i8] c"%s %c %d%f %s\00", align 1
@.str.2 = private unnamed_addr constant [19 x i8] c"%s %s %c %d %g %s\0A\00", align 1

; Function Attrs: nofree nounwind sspstrong uwtable
define dso_local %struct.student* @create() local_unnamed_addr #0 {
  store i32 0, i32* @n, align 4, !tbaa !5
  %1 = tail call noalias align 16 dereferenceable_or_null(100) i8* @malloc(i64 100) #3
  %2 = bitcast i8* %1 to %struct.student*
  %3 = getelementptr inbounds %struct.student, %struct.student* %2, i64 0, i32 0, i64 0
  %4 = tail call i32 (i8*, ...) @__isoc99_scanf(i8* getelementptr inbounds ([3 x i8], [3 x i8]* @.str, i64 0, i64 0), i8* %3)
  %5 = load i8, i8* %3, align 16, !tbaa !9
  %6 = icmp eq i8 %5, 101
  br i1 %6, label %39, label %7

7:                                                ; preds = %0
  %8 = getelementptr inbounds %struct.student, %struct.student* %2, i64 0, i32 1, i64 0
  %9 = getelementptr inbounds %struct.student, %struct.student* %2, i64 0, i32 2
  %10 = getelementptr inbounds %struct.student, %struct.student* %2, i64 0, i32 3
  %11 = getelementptr inbounds %struct.student, %struct.student* %2, i64 0, i32 4
  %12 = getelementptr inbounds %struct.student, %struct.student* %2, i64 0, i32 5, i64 0
  %13 = tail call i32 (i8*, ...) @__isoc99_scanf(i8* getelementptr inbounds ([14 x i8], [14 x i8]* @.str.1, i64 0, i64 0), i8* nonnull %8, i8* nonnull %9, i32* nonnull %10, float* nonnull %11, i8* nonnull %12)
  %14 = load i32, i32* @n, align 4, !tbaa !5
  %15 = icmp eq i32 %14, -1
  br i1 %15, label %39, label %16

16:                                               ; preds = %7, %30
  %17 = phi i32 [ %37, %30 ], [ %14, %7 ]
  %18 = phi %struct.student* [ %19, %30 ], [ %2, %7 ]
  %19 = phi %struct.student* [ %25, %30 ], [ %2, %7 ]
  %20 = add nuw nsw i32 %17, 1
  store i32 %20, i32* @n, align 4, !tbaa !5
  %21 = icmp eq i32 %17, 0
  %22 = select i1 %21, %struct.student* null, %struct.student* %18
  %23 = getelementptr inbounds %struct.student, %struct.student* %19, i64 0, i32 6
  store %struct.student* %22, %struct.student** %23, align 8
  %24 = tail call noalias align 16 dereferenceable_or_null(100) i8* @malloc(i64 100) #3
  %25 = bitcast i8* %24 to %struct.student*
  %26 = getelementptr inbounds %struct.student, %struct.student* %25, i64 0, i32 0, i64 0
  %27 = tail call i32 (i8*, ...) @__isoc99_scanf(i8* getelementptr inbounds ([3 x i8], [3 x i8]* @.str, i64 0, i64 0), i8* %26)
  %28 = load i8, i8* %26, align 16, !tbaa !9
  %29 = icmp eq i8 %28, 101
  br i1 %29, label %39, label %30

30:                                               ; preds = %16
  %31 = getelementptr inbounds %struct.student, %struct.student* %25, i64 0, i32 1, i64 0
  %32 = getelementptr inbounds %struct.student, %struct.student* %25, i64 0, i32 2
  %33 = getelementptr inbounds %struct.student, %struct.student* %25, i64 0, i32 3
  %34 = getelementptr inbounds %struct.student, %struct.student* %25, i64 0, i32 4
  %35 = getelementptr inbounds %struct.student, %struct.student* %25, i64 0, i32 5, i64 0
  %36 = tail call i32 (i8*, ...) @__isoc99_scanf(i8* getelementptr inbounds ([14 x i8], [14 x i8]* @.str.1, i64 0, i64 0), i8* nonnull %31, i8* nonnull %32, i32* nonnull %33, float* nonnull %34, i8* nonnull %35)
  %37 = load i32, i32* @n, align 4, !tbaa !5
  %38 = icmp eq i32 %37, -1
  br i1 %38, label %39, label %16, !llvm.loop !10

39:                                               ; preds = %16, %30, %7, %0
  %40 = phi %struct.student* [ null, %0 ], [ %2, %7 ], [ %19, %30 ], [ %19, %16 ]
  ret %struct.student* %40
}

; Function Attrs: inaccessiblememonly mustprogress nofree nounwind willreturn
declare noalias noundef align 16 i8* @malloc(i64 noundef) local_unnamed_addr #1

; Function Attrs: nofree nounwind
declare noundef i32 @__isoc99_scanf(i8* nocapture noundef readonly, ...) local_unnamed_addr #2

; Function Attrs: nofree nounwind sspstrong uwtable
define dso_local void @print(%struct.student* %0) local_unnamed_addr #0 {
  %2 = icmp eq %struct.student* %0, null
  br i1 %2, label %20, label %3

3:                                                ; preds = %1, %3
  %4 = phi %struct.student* [ %18, %3 ], [ %0, %1 ]
  %5 = getelementptr inbounds %struct.student, %struct.student* %4, i64 0, i32 0, i64 0
  %6 = getelementptr inbounds %struct.student, %struct.student* %4, i64 0, i32 1, i64 0
  %7 = getelementptr inbounds %struct.student, %struct.student* %4, i64 0, i32 2
  %8 = load i8, i8* %7, align 8, !tbaa !12
  %9 = sext i8 %8 to i32
  %10 = getelementptr inbounds %struct.student, %struct.student* %4, i64 0, i32 3
  %11 = load i32, i32* %10, align 4, !tbaa !16
  %12 = getelementptr inbounds %struct.student, %struct.student* %4, i64 0, i32 4
  %13 = load float, float* %12, align 8, !tbaa !17
  %14 = fpext float %13 to double
  %15 = getelementptr inbounds %struct.student, %struct.student* %4, i64 0, i32 5, i64 0
  %16 = tail call i32 (i8*, ...) @printf(i8* nonnull dereferenceable(1) getelementptr inbounds ([19 x i8], [19 x i8]* @.str.2, i64 0, i64 0), i8* nonnull %5, i8* nonnull %6, i32 %9, i32 %11, double %14, i8* nonnull %15)
  %17 = getelementptr inbounds %struct.student, %struct.student* %4, i64 0, i32 6
  %18 = load %struct.student*, %struct.student** %17, align 8, !tbaa !18
  %19 = icmp eq %struct.student* %18, null
  br i1 %19, label %20, label %3, !llvm.loop !19

20:                                               ; preds = %3, %1
  ret void
}

; Function Attrs: nofree nounwind
declare noundef i32 @printf(i8* nocapture noundef readonly, ...) local_unnamed_addr #2

; Function Attrs: nofree nounwind sspstrong uwtable
define dso_local void @main() local_unnamed_addr #0 {
  %1 = tail call %struct.student* @create()
  %2 = icmp eq %struct.student* %1, null
  br i1 %2, label %20, label %3

3:                                                ; preds = %0, %3
  %4 = phi %struct.student* [ %18, %3 ], [ %1, %0 ]
  %5 = getelementptr inbounds %struct.student, %struct.student* %4, i64 0, i32 0, i64 0
  %6 = getelementptr inbounds %struct.student, %struct.student* %4, i64 0, i32 1, i64 0
  %7 = getelementptr inbounds %struct.student, %struct.student* %4, i64 0, i32 2
  %8 = load i8, i8* %7, align 8, !tbaa !12
  %9 = sext i8 %8 to i32
  %10 = getelementptr inbounds %struct.student, %struct.student* %4, i64 0, i32 3
  %11 = load i32, i32* %10, align 4, !tbaa !16
  %12 = getelementptr inbounds %struct.student, %struct.student* %4, i64 0, i32 4
  %13 = load float, float* %12, align 8, !tbaa !17
  %14 = fpext float %13 to double
  %15 = getelementptr inbounds %struct.student, %struct.student* %4, i64 0, i32 5, i64 0
  %16 = tail call i32 (i8*, ...) @printf(i8* nonnull dereferenceable(1) getelementptr inbounds ([19 x i8], [19 x i8]* @.str.2, i64 0, i64 0), i8* nonnull %5, i8* nonnull %6, i32 %9, i32 %11, double %14, i8* nonnull %15) #3
  %17 = getelementptr inbounds %struct.student, %struct.student* %4, i64 0, i32 6
  %18 = load %struct.student*, %struct.student** %17, align 8, !tbaa !18
  %19 = icmp eq %struct.student* %18, null
  br i1 %19, label %20, label %3, !llvm.loop !19

20:                                               ; preds = %3, %0
  ret void
}


!llvm.module.flags = !{!0, !1, !2, !3}
!llvm.ident = !{!4}

!0 = !{i32 1, !"wchar_size", i32 4}
!1 = !{i32 7, !"PIC Level", i32 2}
!2 = !{i32 7, !"PIE Level", i32 2}
!3 = !{i32 7, !"uwtable", i32 1}
!4 = !{!"clang version 13.0.0"}
!5 = !{!6, !6, i64 0}
!6 = !{!"int", !7, i64 0}
!7 = !{!"omnipotent char", !8, i64 0}
!8 = !{!"Simple C/C++ TBAA"}
!9 = !{!7, !7, i64 0}
!10 = distinct !{!10, !11}
!11 = !{!"llvm.loop.mustprogress"}
!12 = !{!13, !7, i64 40}
!13 = !{!"student", !7, i64 0, !7, i64 20, !7, i64 40, !6, i64 44, !14, i64 48, !7, i64 52, !15, i64 72}
!14 = !{!"float", !7, i64 0}
!15 = !{!"any pointer", !7, i64 0}
!16 = !{!13, !6, i64 44}
!17 = !{!13, !14, i64 48}
!18 = !{!13, !15, i64 72}
!19 = distinct !{!19, !11}
